target datalayout = "e-m:e-p270:32:32-p271:32:32-p272:64:64-i64:64-i128:128-f80:128-n8:16:32:64-S128"
target triple = "x86_64-pc-linux-gnu"

%struct.IDAMemRec = type { double, ptr, ptr, i32, double, double, ptr, i32, ptr, ptr, i32, ptr, ptr, i32, i32, double, double, ptr, i32, i32, i32, ptr, ptr, i32, ptr, ptr, ptr, i32, double, i32, i32, double, ptr, ptr, i32, ptr, ptr, i32, i32, i32, double, ptr, ptr, [6 x ptr], [6 x double], [6 x double], [6 x double], [6 x double], [6 x double], ptr, ptr, ptr, ptr, ptr, ptr, ptr, ptr, ptr, ptr, ptr, ptr, ptr, ptr, ptr, [6 x ptr], ptr, ptr, ptr, ptr, [6 x ptr], ptr, ptr, ptr, ptr, ptr, ptr, ptr, ptr, ptr, ptr, ptr, ptr, ptr, ptr, [6 x ptr], ptr, ptr, ptr, ptr, ptr, double, ptr, ptr, i32, i32, i32, i32, i32, i32, i32, double, double, double, i32, double, i32, i32, i32, i32, double, double, double, double, double, double, double, double, double, double, double, double, double, double, i32, i32, i32, i32, i32, i64, double, i32, i64, i64, i64, i64, i64, i64, i64, i64, i64, i64, i64, i64, i64, i64, i64, i64, i64, i64, i64, i64, i64, i64, i64, i64, ptr, ptr, ptr, i32, i32, i32, i32, i32, i32, i32, i32, i32, i32, i32, i32, i32, ptr, ptr, ptr, ptr, ptr, ptr, i32, i32, i32, i32, i32, i32, double, double, double, ptr, i32, ptr, ptr, double, double, double, ptr, ptr, ptr, double, double, i32, i32, i64, ptr, i32, i32, ptr, i32 }
%struct.CkpntMemRec = type { double, double, [6 x ptr], i32, [6 x ptr], i32, i32, [6 x ptr], i32, [6 x ptr], i64, double, i64, i32, i32, i32, i32, double, double, double, double, double, double, double, double, double, [6 x double], [6 x double], [6 x double], [6 x double], [6 x double], i32, ptr }

; Function Attrs: nounwind uwtable
define internal void @IDAAckpntCopyVectors(ptr noundef %0, ptr noundef %1) #0 {
  %3 = alloca ptr, align 8
  %4 = alloca ptr, align 8
  %5 = alloca i32, align 4
  %6 = alloca i32, align 4
  store ptr %0, ptr %3, align 8, !tbaa !11
  store ptr %1, ptr %4, align 8, !tbaa !115
  call void @llvm.lifetime.start.p0(i64 4, ptr %5) #6
  call void @llvm.lifetime.start.p0(i64 4, ptr %6) #6
  store i32 0, ptr %5, align 4, !tbaa !9
  br label %7

7:                                                ; preds = %26, %2
  %8 = load i32, ptr %5, align 4, !tbaa !9
  %9 = load ptr, ptr %4, align 8, !tbaa !115
  %10 = getelementptr inbounds nuw %struct.CkpntMemRec, ptr %9, i32 0, i32 31
  %11 = load i32, ptr %10, align 8, !tbaa !118
  %12 = icmp slt i32 %8, %11
  br i1 %12, label %13, label %29

13:                                               ; preds = %7
  %14 = load ptr, ptr %3, align 8, !tbaa !11
  %15 = getelementptr inbounds nuw %struct.IDAMemRec, ptr %14, i32 0, i32 43
  %16 = load i32, ptr %5, align 4, !tbaa !9
  %17 = sext i32 %16 to i64
  %18 = getelementptr inbounds [6 x ptr], ptr %15, i64 0, i64 %17
  %19 = load ptr, ptr %18, align 8, !tbaa !74
  %20 = load ptr, ptr %4, align 8, !tbaa !115
  %21 = getelementptr inbounds nuw %struct.CkpntMemRec, ptr %20, i32 0, i32 2
  %22 = load i32, ptr %5, align 4, !tbaa !9
  %23 = sext i32 %22 to i64
  %24 = getelementptr inbounds [6 x ptr], ptr %21, i64 0, i64 %23
  %25 = load ptr, ptr %24, align 8, !tbaa !74
  call void @N_VScale(double noundef 1.000000e+00, ptr noundef %19, ptr noundef %25)
  br label %26

26:                                               ; preds = %13
  %27 = load i32, ptr %5, align 4, !tbaa !9
  %28 = add nsw i32 %27, 1
  store i32 %28, ptr %5, align 4, !tbaa !9
  br label %7, !llvm.loop !240

29:                                               ; preds = %7
  %30 = load ptr, ptr %4, align 8, !tbaa !115
  %31 = getelementptr inbounds nuw %struct.CkpntMemRec, ptr %30, i32 0, i32 3
  %32 = load i32, ptr %31, align 8, !tbaa !120
  %33 = icmp ne i32 %32, 0
  br i1 %33, label %34, label %58

34:                                               ; preds = %29
  store i32 0, ptr %5, align 4, !tbaa !9
  br label %35

35:                                               ; preds = %54, %34
  %36 = load i32, ptr %5, align 4, !tbaa !9
  %37 = load ptr, ptr %4, align 8, !tbaa !115
  %38 = getelementptr inbounds nuw %struct.CkpntMemRec, ptr %37, i32 0, i32 31
  %39 = load i32, ptr %38, align 8, !tbaa !118
  %40 = icmp slt i32 %36, %39
  br i1 %40, label %41, label %57

41:                                               ; preds = %35
  %42 = load ptr, ptr %3, align 8, !tbaa !11
  %43 = getelementptr inbounds nuw %struct.IDAMemRec, ptr %42, i32 0, i32 64
  %44 = load i32, ptr %5, align 4, !tbaa !9
  %45 = sext i32 %44 to i64
  %46 = getelementptr inbounds [6 x ptr], ptr %43, i64 0, i64 %45
  %47 = load ptr, ptr %46, align 8, !tbaa !74
  %48 = load ptr, ptr %4, align 8, !tbaa !115
  %49 = getelementptr inbounds nuw %struct.CkpntMemRec, ptr %48, i32 0, i32 4
  %50 = load i32, ptr %5, align 4, !tbaa !9
  %51 = sext i32 %50 to i64
  %52 = getelementptr inbounds [6 x ptr], ptr %49, i64 0, i64 %51
  %53 = load ptr, ptr %52, align 8, !tbaa !74
  call void @N_VScale(double noundef 1.000000e+00, ptr noundef %47, ptr noundef %53)
  br label %54

54:                                               ; preds = %41
  %55 = load i32, ptr %5, align 4, !tbaa !9
  %56 = add nsw i32 %55, 1
  store i32 %56, ptr %5, align 4, !tbaa !9
  br label %35, !llvm.loop !241

57:                                               ; preds = %35
  br label %58

58:                                               ; preds = %57, %29
  %59 = load ptr, ptr %4, align 8, !tbaa !115
  %60 = getelementptr inbounds nuw %struct.CkpntMemRec, ptr %59, i32 0, i32 5
  %61 = load i32, ptr %60, align 8, !tbaa !122
  %62 = icmp ne i32 %61, 0
  br i1 %62, label %63, label %106

63:                                               ; preds = %58
  store i32 0, ptr %6, align 4, !tbaa !9
  br label %64

64:                                               ; preds = %102, %63
  %65 = load i32, ptr %6, align 4, !tbaa !9
  %66 = load ptr, ptr %3, align 8, !tbaa !11
  %67 = getelementptr inbounds nuw %struct.IDAMemRec, ptr %66, i32 0, i32 19
  %68 = load i32, ptr %67, align 4, !tbaa !62
  %69 = icmp slt i32 %65, %68
  br i1 %69, label %70, label %105

70:                                               ; preds = %64
  store i32 0, ptr %5, align 4, !tbaa !9
  br label %71

71:                                               ; preds = %98, %70
  %72 = load i32, ptr %5, align 4, !tbaa !9
  %73 = load ptr, ptr %4, align 8, !tbaa !115
  %74 = getelementptr inbounds nuw %struct.CkpntMemRec, ptr %73, i32 0, i32 31
  %75 = load i32, ptr %74, align 8, !tbaa !118
  %76 = icmp slt i32 %72, %75
  br i1 %76, label %77, label %101

77:                                               ; preds = %71
  %78 = load ptr, ptr %3, align 8, !tbaa !11
  %79 = getelementptr inbounds nuw %struct.IDAMemRec, ptr %78, i32 0, i32 69
  %80 = load i32, ptr %5, align 4, !tbaa !9
  %81 = sext i32 %80 to i64
  %82 = getelementptr inbounds [6 x ptr], ptr %79, i64 0, i64 %81
  %83 = load ptr, ptr %82, align 8, !tbaa !75
  %84 = load i32, ptr %6, align 4, !tbaa !9
  %85 = sext i32 %84 to i64
  %86 = getelementptr inbounds ptr, ptr %83, i64 %85
  %87 = load ptr, ptr %86, align 8, !tbaa !74
  %88 = load ptr, ptr %4, align 8, !tbaa !115
  %89 = getelementptr inbounds nuw %struct.CkpntMemRec, ptr %88, i32 0, i32 7
  %90 = load i32, ptr %5, align 4, !tbaa !9
  %91 = sext i32 %90 to i64
  %92 = getelementptr inbounds [6 x ptr], ptr %89, i64 0, i64 %91
  %93 = load ptr, ptr %92, align 8, !tbaa !75
  %94 = load i32, ptr %6, align 4, !tbaa !9
  %95 = sext i32 %94 to i64
  %96 = getelementptr inbounds ptr, ptr %93, i64 %95
  %97 = load ptr, ptr %96, align 8, !tbaa !74
  call void @N_VScale(double noundef 1.000000e+00, ptr noundef %87, ptr noundef %97)
  br label %98

98:                                               ; preds = %77
  %99 = load i32, ptr %5, align 4, !tbaa !9
  %100 = add nsw i32 %99, 1
  store i32 %100, ptr %5, align 4, !tbaa !9
  br label %71, !llvm.loop !242

101:                                              ; preds = %71
  br label %102

102:                                              ; preds = %101
  %103 = load i32, ptr %6, align 4, !tbaa !9
  %104 = add nsw i32 %103, 1
  store i32 %104, ptr %6, align 4, !tbaa !9
  br label %64, !llvm.loop !243

105:                                              ; preds = %64
  br label %106

106:                                              ; preds = %105, %58
  %107 = load ptr, ptr %4, align 8, !tbaa !115
  %108 = getelementptr inbounds nuw %struct.CkpntMemRec, ptr %107, i32 0, i32 8
  %109 = load i32, ptr %108, align 8, !tbaa !125
  %110 = icmp ne i32 %109, 0
  br i1 %110, label %111, label %154

111:                                              ; preds = %106
  store i32 0, ptr %6, align 4, !tbaa !9
  br label %112

112:                                              ; preds = %150, %111
  %113 = load i32, ptr %6, align 4, !tbaa !9
  %114 = load ptr, ptr %3, align 8, !tbaa !11
  %115 = getelementptr inbounds nuw %struct.IDAMemRec, ptr %114, i32 0, i32 19
  %116 = load i32, ptr %115, align 4, !tbaa !62
  %117 = icmp slt i32 %113, %116
  br i1 %117, label %118, label %153

118:                                              ; preds = %112
  store i32 0, ptr %5, align 4, !tbaa !9
  br label %119

119:                                              ; preds = %146, %118
  %120 = load i32, ptr %5, align 4, !tbaa !9
  %121 = load ptr, ptr %4, align 8, !tbaa !115
  %122 = getelementptr inbounds nuw %struct.CkpntMemRec, ptr %121, i32 0, i32 31
  %123 = load i32, ptr %122, align 8, !tbaa !118
  %124 = icmp slt i32 %120, %123
  br i1 %124, label %125, label %149

125:                                              ; preds = %119
  %126 = load ptr, ptr %3, align 8, !tbaa !11
  %127 = getelementptr inbounds nuw %struct.IDAMemRec, ptr %126, i32 0, i32 84
  %128 = load i32, ptr %5, align 4, !tbaa !9
  %129 = sext i32 %128 to i64
  %130 = getelementptr inbounds [6 x ptr], ptr %127, i64 0, i64 %129
  %131 = load ptr, ptr %130, align 8, !tbaa !75
  %132 = load i32, ptr %6, align 4, !tbaa !9
  %133 = sext i32 %132 to i64
  %134 = getelementptr inbounds ptr, ptr %131, i64 %133
  %135 = load ptr, ptr %134, align 8, !tbaa !74
  %136 = load ptr, ptr %4, align 8, !tbaa !115
  %137 = getelementptr inbounds nuw %struct.CkpntMemRec, ptr %136, i32 0, i32 9
  %138 = load i32, ptr %5, align 4, !tbaa !9
  %139 = sext i32 %138 to i64
  %140 = getelementptr inbounds [6 x ptr], ptr %137, i64 0, i64 %139
  %141 = load ptr, ptr %140, align 8, !tbaa !75
  %142 = load i32, ptr %6, align 4, !tbaa !9
  %143 = sext i32 %142 to i64
  %144 = getelementptr inbounds ptr, ptr %141, i64 %143
  %145 = load ptr, ptr %144, align 8, !tbaa !74
  call void @N_VScale(double noundef 1.000000e+00, ptr noundef %135, ptr noundef %145)
  br label %146

146:                                              ; preds = %125
  %147 = load i32, ptr %5, align 4, !tbaa !9
  %148 = add nsw i32 %147, 1
  store i32 %148, ptr %5, align 4, !tbaa !9
  br label %119, !llvm.loop !244

149:                                              ; preds = %119
  br label %150

150:                                              ; preds = %149
  %151 = load i32, ptr %6, align 4, !tbaa !9
  %152 = add nsw i32 %151, 1
  store i32 %152, ptr %6, align 4, !tbaa !9
  br label %112, !llvm.loop !245

153:                                              ; preds = %112
  br label %154

154:                                              ; preds = %153, %106
  call void @llvm.lifetime.end.p0(i64 4, ptr %6) #6
  call void @llvm.lifetime.end.p0(i64 4, ptr %5) #6
  ret void
}