; Function Attrs: nounwind uwtable
define internal fastcc void @IDAAckpntCopyVectors(ptr noundef nonnull readonly captures(none) %0, ptr noundef nonnull readonly captures(none) %1) unnamed_addr #0 {
  %3 = getelementptr inbounds nuw i8, ptr %1, i64 584
  %4 = load i32, ptr %3, align 8, !tbaa !108
  %5 = icmp sgt i32 %4, 0
  br i1 %5, label %.lr.ph, label %._crit_edge

.lr.ph:                                           ; preds = %2
  %6 = getelementptr inbounds nuw i8, ptr %0, i64 312
  %7 = getelementptr inbounds nuw i8, ptr %1, i64 16
  br label %8

8:                                                ; preds = %.lr.ph, %8
  %indvars.iv = phi i64 [ 0, %.lr.ph ], [ %indvars.iv.next, %8 ]
  %9 = getelementptr inbounds nuw [6 x ptr], ptr %6, i64 0, i64 %indvars.iv
  %10 = load ptr, ptr %9, align 8, !tbaa !68
  %11 = getelementptr inbounds nuw [6 x ptr], ptr %7, i64 0, i64 %indvars.iv
  %12 = load ptr, ptr %11, align 8, !tbaa !68
  tail call void @N_VScale(double noundef 1.000000e+00, ptr noundef %10, ptr noundef %12) #9
  %indvars.iv.next = add nuw nsw i64 %indvars.iv, 1
  %13 = load i32, ptr %3, align 8, !tbaa !108
  %14 = sext i32 %13 to i64
  %15 = icmp slt i64 %indvars.iv.next, %14
  br i1 %15, label %8, label %._crit_edge, !llvm.loop !223

._crit_edge:                                      ; preds = %8, %2
  %16 = phi i32 [ %4, %2 ], [ %13, %8 ]
  %17 = getelementptr inbounds nuw i8, ptr %1, i64 64
  %18 = load i32, ptr %17, align 8, !tbaa !110
  %.not = icmp ne i32 %18, 0
  %19 = icmp sgt i32 %16, 0
  %or.cond = and i1 %.not, %19
  br i1 %or.cond, label %.lr.ph52, label %.loopexit49

.lr.ph52:                                         ; preds = %._crit_edge
  %20 = getelementptr inbounds nuw i8, ptr %0, i64 720
  %21 = getelementptr inbounds nuw i8, ptr %1, i64 72
  br label %22

22:                                               ; preds = %.lr.ph52, %22
  %indvars.iv64 = phi i64 [ 0, %.lr.ph52 ], [ %indvars.iv.next65, %22 ]
  %23 = getelementptr inbounds nuw [6 x ptr], ptr %20, i64 0, i64 %indvars.iv64
  %24 = load ptr, ptr %23, align 8, !tbaa !68
  %25 = getelementptr inbounds nuw [6 x ptr], ptr %21, i64 0, i64 %indvars.iv64
  %26 = load ptr, ptr %25, align 8, !tbaa !68
  tail call void @N_VScale(double noundef 1.000000e+00, ptr noundef %24, ptr noundef %26) #9
  %indvars.iv.next65 = add nuw nsw i64 %indvars.iv64, 1
  %27 = load i32, ptr %3, align 8, !tbaa !108
  %28 = sext i32 %27 to i64
  %29 = icmp slt i64 %indvars.iv.next65, %28
  br i1 %29, label %22, label %.loopexit49, !llvm.loop !224

.loopexit49:                                      ; preds = %22, %._crit_edge
  %30 = phi i32 [ %16, %._crit_edge ], [ %27, %22 ]
  %31 = getelementptr inbounds nuw i8, ptr %1, i64 120
  %32 = load i32, ptr %31, align 8, !tbaa !112
  %.not42 = icmp eq i32 %32, 0
  br i1 %.not42, label %.loopexit47, label %.preheader46

.preheader46:                                     ; preds = %.loopexit49
  %33 = getelementptr inbounds nuw i8, ptr %0, i64 140
  %34 = load i32, ptr %33, align 4, !tbaa !50
  %35 = icmp sgt i32 %34, 0
  br i1 %35, label %.preheader45.lr.ph, label %.loopexit47

.preheader45.lr.ph:                               ; preds = %.preheader46
  %36 = getelementptr inbounds nuw i8, ptr %0, i64 800
  %37 = getelementptr inbounds nuw i8, ptr %1, i64 128
  %38 = icmp sgt i32 %30, 0
  br i1 %38, label %.preheader45, label %.loopexit47

.preheader45:                                     ; preds = %.preheader45.lr.ph, %._crit_edge55
  %39 = phi i32 [ %53, %._crit_edge55 ], [ %34, %.preheader45.lr.ph ]
  %40 = phi i32 [ %54, %._crit_edge55 ], [ %30, %.preheader45.lr.ph ]
  %indvars.iv70 = phi i64 [ %indvars.iv.next71, %._crit_edge55 ], [ 0, %.preheader45.lr.ph ]
  %41 = icmp sgt i32 %40, 0
  br i1 %41, label %.lr.ph54, label %._crit_edge55

.lr.ph54:                                         ; preds = %.preheader45, %.lr.ph54
  %indvars.iv67 = phi i64 [ %indvars.iv.next68, %.lr.ph54 ], [ 0, %.preheader45 ]
  %42 = getelementptr inbounds nuw [6 x ptr], ptr %36, i64 0, i64 %indvars.iv67
  %43 = load ptr, ptr %42, align 8, !tbaa !70
  %44 = getelementptr inbounds nuw ptr, ptr %43, i64 %indvars.iv70
  %45 = load ptr, ptr %44, align 8, !tbaa !68
  %46 = getelementptr inbounds nuw [6 x ptr], ptr %37, i64 0, i64 %indvars.iv67
  %47 = load ptr, ptr %46, align 8, !tbaa !70
  %48 = getelementptr inbounds nuw ptr, ptr %47, i64 %indvars.iv70
  %49 = load ptr, ptr %48, align 8, !tbaa !68
  tail call void @N_VScale(double noundef 1.000000e+00, ptr noundef %45, ptr noundef %49) #9
  %indvars.iv.next68 = add nuw nsw i64 %indvars.iv67, 1
  %50 = load i32, ptr %3, align 8, !tbaa !108
  %51 = sext i32 %50 to i64
  %52 = icmp slt i64 %indvars.iv.next68, %51
  br i1 %52, label %.lr.ph54, label %._crit_edge55.loopexit, !llvm.loop !225

._crit_edge55.loopexit:                           ; preds = %.lr.ph54
  %.pre = load i32, ptr %33, align 4, !tbaa !50
  br label %._crit_edge55

._crit_edge55:                                    ; preds = %._crit_edge55.loopexit, %.preheader45
  %53 = phi i32 [ %.pre, %._crit_edge55.loopexit ], [ %39, %.preheader45 ]
  %54 = phi i32 [ %50, %._crit_edge55.loopexit ], [ %40, %.preheader45 ]
  %indvars.iv.next71 = add nuw nsw i64 %indvars.iv70, 1
  %55 = sext i32 %53 to i64
  %56 = icmp slt i64 %indvars.iv.next71, %55
  br i1 %56, label %.preheader45, label %.loopexit47, !llvm.loop !226

.loopexit47:                                      ; preds = %._crit_edge55, %.preheader45.lr.ph, %.preheader46, %.loopexit49
  %57 = phi i32 [ %30, %.preheader46 ], [ %30, %.loopexit49 ], [ %30, %.preheader45.lr.ph ], [ %54, %._crit_edge55 ]
  %58 = getelementptr inbounds nuw i8, ptr %1, i64 176
  %59 = load i32, ptr %58, align 8, !tbaa !115
  %.not43 = icmp eq i32 %59, 0
  br i1 %.not43, label %.loopexit, label %.preheader44

.preheader44:                                     ; preds = %.loopexit47
  %60 = getelementptr inbounds nuw i8, ptr %0, i64 140
  %61 = load i32, ptr %60, align 4, !tbaa !50
  %62 = icmp sgt i32 %61, 0
  br i1 %62, label %.preheader.lr.ph, label %.loopexit

.preheader.lr.ph:                                 ; preds = %.preheader44
  %63 = getelementptr inbounds nuw i8, ptr %0, i64 960
  %64 = getelementptr inbounds nuw i8, ptr %1, i64 184
  %65 = icmp sgt i32 %57, 0
  br i1 %65, label %.preheader, label %.loopexit

.preheader:                                       ; preds = %.preheader.lr.ph, %._crit_edge59
  %66 = phi i32 [ %80, %._crit_edge59 ], [ %61, %.preheader.lr.ph ]
  %67 = phi i32 [ %81, %._crit_edge59 ], [ %57, %.preheader.lr.ph ]
  %indvars.iv76 = phi i64 [ %indvars.iv.next77, %._crit_edge59 ], [ 0, %.preheader.lr.ph ]
  %68 = icmp sgt i32 %67, 0
  br i1 %68, label %.lr.ph58, label %._crit_edge59

.lr.ph58:                                         ; preds = %.preheader, %.lr.ph58
  %indvars.iv73 = phi i64 [ %indvars.iv.next74, %.lr.ph58 ], [ 0, %.preheader ]
  %69 = getelementptr inbounds nuw [6 x ptr], ptr %63, i64 0, i64 %indvars.iv73
  %70 = load ptr, ptr %69, align 8, !tbaa !70
  %71 = getelementptr inbounds nuw ptr, ptr %70, i64 %indvars.iv76
  %72 = load ptr, ptr %71, align 8, !tbaa !68
  %73 = getelementptr inbounds nuw [6 x ptr], ptr %64, i64 0, i64 %indvars.iv73
  %74 = load ptr, ptr %73, align 8, !tbaa !70
  %75 = getelementptr inbounds nuw ptr, ptr %74, i64 %indvars.iv76
  %76 = load ptr, ptr %75, align 8, !tbaa !68
  tail call void @N_VScale(double noundef 1.000000e+00, ptr noundef %72, ptr noundef %76) #9
  %indvars.iv.next74 = add nuw nsw i64 %indvars.iv73, 1
  %77 = load i32, ptr %3, align 8, !tbaa !108
  %78 = sext i32 %77 to i64
  %79 = icmp slt i64 %indvars.iv.next74, %78
  br i1 %79, label %.lr.ph58, label %._crit_edge59.loopexit, !llvm.loop !227

._crit_edge59.loopexit:                           ; preds = %.lr.ph58
  %.pre79 = load i32, ptr %60, align 4, !tbaa !50
  br label %._crit_edge59

._crit_edge59:                                    ; preds = %._crit_edge59.loopexit, %.preheader
  %80 = phi i32 [ %.pre79, %._crit_edge59.loopexit ], [ %66, %.preheader ]
  %81 = phi i32 [ %77, %._crit_edge59.loopexit ], [ %67, %.preheader ]
  %indvars.iv.next77 = add nuw nsw i64 %indvars.iv76, 1
  %82 = sext i32 %80 to i64
  %83 = icmp slt i64 %indvars.iv.next77, %82
  br i1 %83, label %.preheader, label %.loopexit, !llvm.loop !228

.loopexit:                                        ; preds = %._crit_edge59, %.preheader.lr.ph, %.preheader44, %.loopexit47
  ret void
}